target datalayout = "e-m:e-p270:32:32-p271:32:32-p272:64:64-i64:64-i128:128-f80:128-n8:16:32:64-S128"
target triple = "x86_64-pc-linux-gnu"

%struct.Curl_easy = type { i32, i64, i64, ptr, %struct.Curl_llist_node, %struct.Curl_llist_node, i32, i32, %struct.Curl_message, %struct.easy_pollset, %struct.Names, ptr, ptr, ptr, ptr, %struct.SingleRequest, %struct.UserDefined, ptr, ptr, ptr, %struct.Progress, %struct.UrlState, ptr, %struct.PureInfo, %struct.curl_tlssessioninfo }
%struct.Curl_llist_node = type { ptr, ptr, ptr, ptr }
%struct.Curl_message = type { %struct.Curl_llist_node, %struct.CURLMsg }
%struct.CURLMsg = type { i32, ptr, %union.anon.3 }
%union.anon.3 = type { ptr }
%struct.easy_pollset = type { [5 x i32], i32, [5 x i8] }
%struct.Names = type { ptr, i32 }
%struct.SingleRequest = type <{ i64, i64, i64, i64, %struct.curltime, i32, i32, i32, i32, i64, i32, i32, i8, i8, [2 x i8], i32, ptr, ptr, %struct.bufq, i64, i64, ptr, ptr, %union.anon.4, ptr, i8, i32, [3 x i8] }>
%struct.curltime = type { i64, i32 }
%struct.bufq = type { ptr, ptr, ptr, ptr, i64, i64, i64, i32 }
%union.anon.4 = type { ptr }
%struct.UserDefined = type <{ ptr, ptr, ptr, ptr, ptr, ptr, i64, i64, i64, ptr, ptr, i64, ptr, ptr, ptr, ptr, ptr, ptr, ptr, ptr, ptr, ptr, ptr, ptr, ptr, ptr, ptr, ptr, ptr, ptr, ptr, ptr, ptr, ptr, ptr, i64, i64, i64, i64, i64, i64, i64, i64, i64, ptr, ptr, %struct.curl_mimepart, ptr, ptr, ptr, i64, %struct.ssl_config_data, %struct.ssl_config_data, ptr, i16, i8, i8, %struct.ssl_general_config, i32, i32, i32, [4 x i8], ptr, ptr, i64, i32, i8, i8, i8, i8, ptr, ptr, ptr, i32, [4 x i8], [74 x ptr], [8 x ptr], i32, i32, i32, [4 x i8], ptr, i32, [4 x i8], ptr, ptr, ptr, ptr, ptr, i32, i32, i32, i32, i32, i32, i32, i32, i64, ptr, ptr, i64, ptr, i64, ptr, ptr, ptr, ptr, i32, i16, i16, i16, i8, i8, i8, i8, i8, i8, i8, i8, i64, [6 x i8] }>
%struct.curl_mimepart = type { ptr, ptr, i32, i32, ptr, ptr, ptr, ptr, ptr, ptr, ptr, ptr, ptr, ptr, ptr, i64, %struct.mime_state, ptr, %struct.mime_encoder_state, i64 }
%struct.mime_state = type { i32, ptr, i64 }
%struct.mime_encoder_state = type { i64, i64, i64, [256 x i8] }
%struct.ssl_config_data = type { %struct.ssl_primary_config, i64, ptr, ptr, ptr, ptr, ptr, ptr, ptr, i16 }
%struct.ssl_primary_config = type { ptr, ptr, ptr, ptr, ptr, ptr, ptr, ptr, ptr, ptr, ptr, ptr, ptr, ptr, i8, i32, i8, i8 }
%struct.ssl_general_config = type { i32 }
%struct.Progress = type { i64, %struct.pgrs_dir, %struct.pgrs_dir, i64, i64, i32, i32, i64, i64, i64, i64, i64, i64, i64, i64, i64, %struct.curltime, %struct.curltime, %struct.curltime, %struct.curltime, %struct.curltime, [6 x i64], [6 x %struct.curltime], i32, i8 }
%struct.pgrs_dir = type { i64, i64, i64, %struct.pgrs_measure }
%struct.pgrs_measure = type { %struct.curltime, i64 }
%struct.UrlState = type { %struct.curltime, i64, i64, %struct.dynbuf, ptr, i64, ptr, i32, i32, i32, ptr, i32, i64, i32, ptr, %struct.digestdata, %struct.digestdata, %struct.auth, %struct.auth, %struct.Curl_async, ptr, i8, %struct.curltime, %struct.Curl_tree, %struct.Curl_llist, [15 x %struct.time_node], ptr, ptr, i64, i64, i64, i64, [32 x i8], i64, ptr, ptr, ptr, %struct.urlpieces, ptr, ptr, ptr, ptr, ptr, i64, %struct.dynbuf, %struct.Curl_llist, [2 x %struct.curl_header], ptr, i32, ptr, ptr, %struct.store_netrc, %struct.dynamically_allocated_data, i8, i8, i8, i8, i32 }
%struct.digestdata = type { ptr, ptr, ptr, ptr, ptr, ptr, i32, i8, i8 }
%struct.auth = type { i64, i64, i64, i8 }
%struct.Curl_async = type { ptr, ptr, ptr, ptr, i32, i32, i8 }
%struct.Curl_tree = type { ptr, ptr, ptr, ptr, %struct.curltime, ptr }
%struct.time_node = type { %struct.Curl_llist_node, %struct.curltime, i32 }
%struct.urlpieces = type { ptr, ptr, ptr, ptr, ptr, ptr, ptr, ptr }
%struct.dynbuf = type { ptr, i64, i64, i64 }
%struct.Curl_llist = type { ptr, ptr, ptr, i64 }
%struct.curl_header = type { ptr, ptr, i64, i64, i32, ptr }
%struct.store_netrc = type { %struct.dynbuf, ptr, i8 }
%struct.dynamically_allocated_data = type { ptr, ptr, ptr, ptr, ptr, ptr, ptr, ptr, ptr, ptr, ptr, ptr, ptr, ptr }
%struct.PureInfo = type { i32, i32, i32, i64, i64, i64, i64, i64, i64, i64, ptr, ptr, i64, i32, %struct.ip_quadruple, i32, ptr, i32, %struct.curl_certinfo, i32, i8 }
%struct.ip_quadruple = type { [46 x i8], [46 x i8], i32, i32 }
%struct.curl_certinfo = type { i32, ptr }
%struct.curl_tlssessioninfo = type { i32, ptr }
%struct.curl_trc_feat = type { ptr, i32 }

@.str.15 = private unnamed_addr constant [46 x i8] c"Failed to set SO_KEEPALIVE on fd %d: errno %d\00", align 1
@.str.16 = private unnamed_addr constant [46 x i8] c"Failed to set TCP_KEEPIDLE on fd %d: errno %d\00", align 1
@.str.17 = private unnamed_addr constant [47 x i8] c"Failed to set TCP_KEEPINTVL on fd %d: errno %d\00", align 1
@.str.18 = private unnamed_addr constant [45 x i8] c"Failed to set TCP_KEEPCNT on fd %d: errno %d\00", align 1

; Function Attrs: nounwind uwtable
define internal void @tcpkeepalive(ptr noundef %0, i32 noundef %1) #0 {
  %3 = alloca ptr, align 8
  %4 = alloca i32, align 4
  %5 = alloca i32, align 4
  store ptr %0, ptr %3, align 8, !tbaa !23
  store i32 %1, ptr %4, align 4, !tbaa !10
  call void @llvm.lifetime.start.p0(i64 4, ptr %5) #9
  %6 = load ptr, ptr %3, align 8, !tbaa !23
  %7 = getelementptr inbounds nuw %struct.Curl_easy, ptr %6, i32 0, i32 16
  %8 = getelementptr inbounds nuw %struct.UserDefined, ptr %7, i32 0, i32 119
  %9 = load i64, ptr %8, align 2
  %10 = lshr i64 %9, 41
  %11 = and i64 %10, 1
  %12 = trunc i64 %11 to i32
  %13 = icmp ne i32 %12, 0
  %14 = select i1 %13, i32 1, i32 0
  store i32 %14, ptr %5, align 4, !tbaa !10
  %15 = load i32, ptr %4, align 4, !tbaa !10
  %16 = call i32 @setsockopt(i32 noundef %15, i32 noundef 1, i32 noundef 9, ptr noundef %5, i32 noundef 4) #9
  %17 = icmp slt i32 %16, 0
  br i1 %17, label %18, label %53

18:                                               ; preds = %2
  br label %19

19:                                               ; preds = %18
  %20 = load ptr, ptr %3, align 8, !tbaa !23
  %21 = icmp ne ptr %20, null
  br i1 %21, label %22, label %50

22:                                               ; preds = %19
  %23 = load ptr, ptr %3, align 8, !tbaa !23
  %24 = getelementptr inbounds nuw %struct.Curl_easy, ptr %23, i32 0, i32 16
  %25 = getelementptr inbounds nuw %struct.UserDefined, ptr %24, i32 0, i32 119
  %26 = load i64, ptr %25, align 2
  %27 = lshr i64 %26, 31
  %28 = and i64 %27, 1
  %29 = trunc i64 %28 to i32
  %30 = icmp ne i32 %29, 0
  br i1 %30, label %31, label %50

31:                                               ; preds = %22
  %32 = load ptr, ptr %3, align 8, !tbaa !23
  %33 = getelementptr inbounds nuw %struct.Curl_easy, ptr %32, i32 0, i32 21
  %34 = getelementptr inbounds nuw %struct.UrlState, ptr %33, i32 0, i32 50
  %35 = load ptr, ptr %34, align 8, !tbaa !125
  %36 = icmp ne ptr %35, null
  br i1 %36, label %37, label %45

37:                                               ; preds = %31
  %38 = load ptr, ptr %3, align 8, !tbaa !23
  %39 = getelementptr inbounds nuw %struct.Curl_easy, ptr %38, i32 0, i32 21
  %40 = getelementptr inbounds nuw %struct.UrlState, ptr %39, i32 0, i32 50
  %41 = load ptr, ptr %40, align 8, !tbaa !125
  %42 = getelementptr inbounds nuw %struct.curl_trc_feat, ptr %41, i32 0, i32 1
  %43 = load i32, ptr %42, align 8, !tbaa !126
  %44 = icmp sge i32 %43, 1
  br i1 %44, label %45, label %50

45:                                               ; preds = %37, %31
  %46 = load ptr, ptr %3, align 8, !tbaa !23
  %47 = load i32, ptr %4, align 4, !tbaa !10
  %48 = call ptr @__errno_location() #11
  %49 = load i32, ptr %48, align 4, !tbaa !10
  call void (ptr, ptr, ...) @Curl_infof(ptr noundef %46, ptr noundef @.str.15, i32 noundef %47, i32 noundef %49)
  br label %50

50:                                               ; preds = %45, %37, %22, %19
  br label %51

51:                                               ; preds = %50
  br label %52

52:                                               ; preds = %51
  br label %189

53:                                               ; preds = %2
  %54 = load ptr, ptr %3, align 8, !tbaa !23
  %55 = getelementptr inbounds nuw %struct.Curl_easy, ptr %54, i32 0, i32 16
  %56 = getelementptr inbounds nuw %struct.UserDefined, ptr %55, i32 0, i32 94
  %57 = load i32, ptr %56, align 4, !tbaa !178
  %58 = sext i32 %57 to i64
  %59 = call i32 @curlx_sltosi(i64 noundef %58)
  store i32 %59, ptr %5, align 4, !tbaa !10
  %60 = load i32, ptr %4, align 4, !tbaa !10
  %61 = call i32 @setsockopt(i32 noundef %60, i32 noundef 6, i32 noundef 4, ptr noundef %5, i32 noundef 4) #9
  %62 = icmp slt i32 %61, 0
  br i1 %62, label %63, label %98

63:                                               ; preds = %53
  br label %64

64:                                               ; preds = %63
  %65 = load ptr, ptr %3, align 8, !tbaa !23
  %66 = icmp ne ptr %65, null
  br i1 %66, label %67, label %95

67:                                               ; preds = %64
  %68 = load ptr, ptr %3, align 8, !tbaa !23
  %69 = getelementptr inbounds nuw %struct.Curl_easy, ptr %68, i32 0, i32 16
  %70 = getelementptr inbounds nuw %struct.UserDefined, ptr %69, i32 0, i32 119
  %71 = load i64, ptr %70, align 2
  %72 = lshr i64 %71, 31
  %73 = and i64 %72, 1
  %74 = trunc i64 %73 to i32
  %75 = icmp ne i32 %74, 0
  br i1 %75, label %76, label %95

76:                                               ; preds = %67
  %77 = load ptr, ptr %3, align 8, !tbaa !23
  %78 = getelementptr inbounds nuw %struct.Curl_easy, ptr %77, i32 0, i32 21
  %79 = getelementptr inbounds nuw %struct.UrlState, ptr %78, i32 0, i32 50
  %80 = load ptr, ptr %79, align 8, !tbaa !125
  %81 = icmp ne ptr %80, null
  br i1 %81, label %82, label %90

82:                                               ; preds = %76
  %83 = load ptr, ptr %3, align 8, !tbaa !23
  %84 = getelementptr inbounds nuw %struct.Curl_easy, ptr %83, i32 0, i32 21
  %85 = getelementptr inbounds nuw %struct.UrlState, ptr %84, i32 0, i32 50
  %86 = load ptr, ptr %85, align 8, !tbaa !125
  %87 = getelementptr inbounds nuw %struct.curl_trc_feat, ptr %86, i32 0, i32 1
  %88 = load i32, ptr %87, align 8, !tbaa !126
  %89 = icmp sge i32 %88, 1
  br i1 %89, label %90, label %95

90:                                               ; preds = %82, %76
  %91 = load ptr, ptr %3, align 8, !tbaa !23
  %92 = load i32, ptr %4, align 4, !tbaa !10
  %93 = call ptr @__errno_location() #11
  %94 = load i32, ptr %93, align 4, !tbaa !10
  call void (ptr, ptr, ...) @Curl_infof(ptr noundef %91, ptr noundef @.str.16, i32 noundef %92, i32 noundef %94)
  br label %95

95:                                               ; preds = %90, %82, %67, %64
  br label %96

96:                                               ; preds = %95
  br label %97

97:                                               ; preds = %96
  br label %98

98:                                               ; preds = %97, %53
  %99 = load ptr, ptr %3, align 8, !tbaa !23
  %100 = getelementptr inbounds nuw %struct.Curl_easy, ptr %99, i32 0, i32 16
  %101 = getelementptr inbounds nuw %struct.UserDefined, ptr %100, i32 0, i32 95
  %102 = load i32, ptr %101, align 8, !tbaa !179
  %103 = sext i32 %102 to i64
  %104 = call i32 @curlx_sltosi(i64 noundef %103)
  store i32 %104, ptr %5, align 4, !tbaa !10
  %105 = load i32, ptr %4, align 4, !tbaa !10
  %106 = call i32 @setsockopt(i32 noundef %105, i32 noundef 6, i32 noundef 5, ptr noundef %5, i32 noundef 4) #9
  %107 = icmp slt i32 %106, 0
  br i1 %107, label %108, label %143

108:                                              ; preds = %98
  br label %109

109:                                              ; preds = %108
  %110 = load ptr, ptr %3, align 8, !tbaa !23
  %111 = icmp ne ptr %110, null
  br i1 %111, label %112, label %140

112:                                              ; preds = %109
  %113 = load ptr, ptr %3, align 8, !tbaa !23
  %114 = getelementptr inbounds nuw %struct.Curl_easy, ptr %113, i32 0, i32 16
  %115 = getelementptr inbounds nuw %struct.UserDefined, ptr %114, i32 0, i32 119
  %116 = load i64, ptr %115, align 2
  %117 = lshr i64 %116, 31
  %118 = and i64 %117, 1
  %119 = trunc i64 %118 to i32
  %120 = icmp ne i32 %119, 0
  br i1 %120, label %121, label %140

121:                                              ; preds = %112
  %122 = load ptr, ptr %3, align 8, !tbaa !23
  %123 = getelementptr inbounds nuw %struct.Curl_easy, ptr %122, i32 0, i32 21
  %124 = getelementptr inbounds nuw %struct.UrlState, ptr %123, i32 0, i32 50
  %125 = load ptr, ptr %124, align 8, !tbaa !125
  %126 = icmp ne ptr %125, null
  br i1 %126, label %127, label %135

127:                                              ; preds = %121
  %128 = load ptr, ptr %3, align 8, !tbaa !23
  %129 = getelementptr inbounds nuw %struct.Curl_easy, ptr %128, i32 0, i32 21
  %130 = getelementptr inbounds nuw %struct.UrlState, ptr %129, i32 0, i32 50
  %131 = load ptr, ptr %130, align 8, !tbaa !125
  %132 = getelementptr inbounds nuw %struct.curl_trc_feat, ptr %131, i32 0, i32 1
  %133 = load i32, ptr %132, align 8, !tbaa !126
  %134 = icmp sge i32 %133, 1
  br i1 %134, label %135, label %140

135:                                              ; preds = %127, %121
  %136 = load ptr, ptr %3, align 8, !tbaa !23
  %137 = load i32, ptr %4, align 4, !tbaa !10
  %138 = call ptr @__errno_location() #11
  %139 = load i32, ptr %138, align 4, !tbaa !10
  call void (ptr, ptr, ...) @Curl_infof(ptr noundef %136, ptr noundef @.str.17, i32 noundef %137, i32 noundef %139)
  br label %140

140:                                              ; preds = %135, %127, %112, %109
  br label %141

141:                                              ; preds = %140
  br label %142

142:                                              ; preds = %141
  br label %143

143:                                              ; preds = %142, %98
  %144 = load ptr, ptr %3, align 8, !tbaa !23
  %145 = getelementptr inbounds nuw %struct.Curl_easy, ptr %144, i32 0, i32 16
  %146 = getelementptr inbounds nuw %struct.UserDefined, ptr %145, i32 0, i32 96
  %147 = load i32, ptr %146, align 4, !tbaa !180
  %148 = sext i32 %147 to i64
  %149 = call i32 @curlx_sltosi(i64 noundef %148)
  store i32 %149, ptr %5, align 4, !tbaa !10
  %150 = load i32, ptr %4, align 4, !tbaa !10
  %151 = call i32 @setsockopt(i32 noundef %150, i32 noundef 6, i32 noundef 6, ptr noundef %5, i32 noundef 4) #9
  %152 = icmp slt i32 %151, 0
  br i1 %152, label %153, label %188

153:                                              ; preds = %143
  br label %154

154:                                              ; preds = %153
  %155 = load ptr, ptr %3, align 8, !tbaa !23
  %156 = icmp ne ptr %155, null
  br i1 %156, label %157, label %185

157:                                              ; preds = %154
  %158 = load ptr, ptr %3, align 8, !tbaa !23
  %159 = getelementptr inbounds nuw %struct.Curl_easy, ptr %158, i32 0, i32 16
  %160 = getelementptr inbounds nuw %struct.UserDefined, ptr %159, i32 0, i32 119
  %161 = load i64, ptr %160, align 2
  %162 = lshr i64 %161, 31
  %163 = and i64 %162, 1
  %164 = trunc i64 %163 to i32
  %165 = icmp ne i32 %164, 0
  br i1 %165, label %166, label %185

166:                                              ; preds = %157
  %167 = load ptr, ptr %3, align 8, !tbaa !23
  %168 = getelementptr inbounds nuw %struct.Curl_easy, ptr %167, i32 0, i32 21
  %169 = getelementptr inbounds nuw %struct.UrlState, ptr %168, i32 0, i32 50
  %170 = load ptr, ptr %169, align 8, !tbaa !125
  %171 = icmp ne ptr %170, null
  br i1 %171, label %172, label %180

172:                                              ; preds = %166
  %173 = load ptr, ptr %3, align 8, !tbaa !23
  %174 = getelementptr inbounds nuw %struct.Curl_easy, ptr %173, i32 0, i32 21
  %175 = getelementptr inbounds nuw %struct.UrlState, ptr %174, i32 0, i32 50
  %176 = load ptr, ptr %175, align 8, !tbaa !125
  %177 = getelementptr inbounds nuw %struct.curl_trc_feat, ptr %176, i32 0, i32 1
  %178 = load i32, ptr %177, align 8, !tbaa !126
  %179 = icmp sge i32 %178, 1
  br i1 %179, label %180, label %185

180:                                              ; preds = %172, %166
  %181 = load ptr, ptr %3, align 8, !tbaa !23
  %182 = load i32, ptr %4, align 4, !tbaa !10
  %183 = call ptr @__errno_location() #11
  %184 = load i32, ptr %183, align 4, !tbaa !10
  call void (ptr, ptr, ...) @Curl_infof(ptr noundef %181, ptr noundef @.str.18, i32 noundef %182, i32 noundef %184)
  br label %185

185:                                              ; preds = %180, %172, %157, %154
  br label %186

186:                                              ; preds = %185
  br label %187

187:                                              ; preds = %186
  br label %188

188:                                              ; preds = %187, %143
  br label %189

189:                                              ; preds = %188, %52
  call void @llvm.lifetime.end.p0(i64 4, ptr %5) #9
  ret void
}