; Function Attrs: nounwind uwtable
define internal fastcc void @tcpkeepalive(ptr noundef %0, i32 noundef %1) unnamed_addr #2 {
  %3 = alloca i32, align 4
  call void @llvm.lifetime.start.p0(i64 4, ptr nonnull %3) #13
  %4 = getelementptr inbounds nuw i8, ptr %0, i64 2658
  %5 = load i64, ptr %4, align 2
  %6 = lshr i64 %5, 41
  %7 = trunc nuw nsw i64 %6 to i32
  %8 = and i32 %7, 1
  store i32 %8, ptr %3, align 4, !tbaa !87
  %9 = call i32 @setsockopt(i32 noundef %1, i32 noundef 1, i32 noundef 9, ptr noundef nonnull %3, i32 noundef 4) #13
  %10 = icmp slt i32 %9, 0
  br i1 %10, label %11, label %21

11:                                               ; preds = %2
  %12 = load i64, ptr %4, align 2
  %13 = and i64 %12, 2147483648
  %.not46 = icmp eq i64 %13, 0
  br i1 %.not46, label %80, label %14

14:                                               ; preds = %11
  %15 = getelementptr inbounds nuw i8, ptr %0, i64 4864
  %16 = load ptr, ptr %15, align 8, !tbaa !108
  %.not47 = icmp eq ptr %16, null
  br i1 %.not47, label %.sink.split, label %17

17:                                               ; preds = %14
  %18 = getelementptr inbounds nuw i8, ptr %16, i64 8
  %19 = load i32, ptr %18, align 8, !tbaa !109
  %20 = icmp sgt i32 %19, 0
  br i1 %20, label %.sink.split, label %80

21:                                               ; preds = %2
  %22 = getelementptr inbounds nuw i8, ptr %0, i64 2548
  %23 = load i32, ptr %22, align 4, !tbaa !168
  %24 = sext i32 %23 to i64
  %25 = call i32 @curlx_sltosi(i64 noundef %24) #13
  store i32 %25, ptr %3, align 4, !tbaa !87
  %26 = call i32 @setsockopt(i32 noundef %1, i32 noundef 6, i32 noundef 4, ptr noundef nonnull %3, i32 noundef 4) #13
  %27 = icmp slt i32 %26, 0
  br i1 %27, label %28, label %41

28:                                               ; preds = %21
  %29 = load i64, ptr %4, align 2
  %30 = and i64 %29, 2147483648
  %.not = icmp eq i64 %30, 0
  br i1 %.not, label %41, label %31

31:                                               ; preds = %28
  %32 = getelementptr inbounds nuw i8, ptr %0, i64 4864
  %33 = load ptr, ptr %32, align 8, !tbaa !108
  %.not40 = icmp eq ptr %33, null
  br i1 %.not40, label %38, label %34

34:                                               ; preds = %31
  %35 = getelementptr inbounds nuw i8, ptr %33, i64 8
  %36 = load i32, ptr %35, align 8, !tbaa !109
  %37 = icmp sgt i32 %36, 0
  br i1 %37, label %38, label %41

38:                                               ; preds = %34, %31
  %39 = tail call ptr @__errno_location() #15
  %40 = load i32, ptr %39, align 4, !tbaa !87
  call void (ptr, ptr, ...) @Curl_infof(ptr noundef nonnull %0, ptr noundef nonnull @.str.16, i32 noundef %1, i32 noundef %40) #13
  br label %41

41:                                               ; preds = %28, %34, %38, %21
  %42 = getelementptr inbounds nuw i8, ptr %0, i64 2552
  %43 = load i32, ptr %42, align 8, !tbaa !169
  %44 = sext i32 %43 to i64
  %45 = call i32 @curlx_sltosi(i64 noundef %44) #13
  store i32 %45, ptr %3, align 4, !tbaa !87
  %46 = call i32 @setsockopt(i32 noundef %1, i32 noundef 6, i32 noundef 5, ptr noundef nonnull %3, i32 noundef 4) #13
  %47 = icmp slt i32 %46, 0
  br i1 %47, label %48, label %61

48:                                               ; preds = %41
  %49 = load i64, ptr %4, align 2
  %50 = and i64 %49, 2147483648
  %.not41 = icmp eq i64 %50, 0
  br i1 %.not41, label %61, label %51

51:                                               ; preds = %48
  %52 = getelementptr inbounds nuw i8, ptr %0, i64 4864
  %53 = load ptr, ptr %52, align 8, !tbaa !108
  %.not42 = icmp eq ptr %53, null
  br i1 %.not42, label %58, label %54

54:                                               ; preds = %51
  %55 = getelementptr inbounds nuw i8, ptr %53, i64 8
  %56 = load i32, ptr %55, align 8, !tbaa !109
  %57 = icmp sgt i32 %56, 0
  br i1 %57, label %58, label %61

58:                                               ; preds = %54, %51
  %59 = tail call ptr @__errno_location() #15
  %60 = load i32, ptr %59, align 4, !tbaa !87
  call void (ptr, ptr, ...) @Curl_infof(ptr noundef nonnull %0, ptr noundef nonnull @.str.17, i32 noundef %1, i32 noundef %60) #13
  br label %61

61:                                               ; preds = %48, %54, %58, %41
  %62 = getelementptr inbounds nuw i8, ptr %0, i64 2556
  %63 = load i32, ptr %62, align 4, !tbaa !170
  %64 = sext i32 %63 to i64
  %65 = call i32 @curlx_sltosi(i64 noundef %64) #13
  store i32 %65, ptr %3, align 4, !tbaa !87
  %66 = call i32 @setsockopt(i32 noundef %1, i32 noundef 6, i32 noundef 6, ptr noundef nonnull %3, i32 noundef 4) #13
  %67 = icmp slt i32 %66, 0
  br i1 %67, label %68, label %80

68:                                               ; preds = %61
  %69 = load i64, ptr %4, align 2
  %70 = and i64 %69, 2147483648
  %.not43 = icmp eq i64 %70, 0
  br i1 %.not43, label %80, label %71

71:                                               ; preds = %68
  %72 = getelementptr inbounds nuw i8, ptr %0, i64 4864
  %73 = load ptr, ptr %72, align 8, !tbaa !108
  %.not44 = icmp eq ptr %73, null
  br i1 %.not44, label %.sink.split, label %74

74:                                               ; preds = %71
  %75 = getelementptr inbounds nuw i8, ptr %73, i64 8
  %76 = load i32, ptr %75, align 8, !tbaa !109
  %77 = icmp sgt i32 %76, 0
  br i1 %77, label %.sink.split, label %80

.sink.split:                                      ; preds = %71, %74, %14, %17
  %.str.18.sink = phi ptr [ @.str.15, %17 ], [ @.str.15, %14 ], [ @.str.18, %74 ], [ @.str.18, %71 ]
  %78 = tail call ptr @__errno_location() #15
  %79 = load i32, ptr %78, align 4, !tbaa !87
  call void (ptr, ptr, ...) @Curl_infof(ptr noundef nonnull %0, ptr noundef nonnull %.str.18.sink, i32 noundef %1, i32 noundef %79) #13
  br label %80

80:                                               ; preds = %.sink.split, %61, %74, %68, %11, %17
  call void @llvm.lifetime.end.p0(i64 4, ptr nonnull %3) #13
  ret void
}